target datalayout = "e-m:e-p270:32:32-p271:32:32-p272:64:64-i64:64-i128:128-f80:128-n8:16:32:64-S128"
target triple = "x86_64-pc-linux-gnu"

%struct._zval_struct = type { %union._zend_value, %union.anon.0, %union.anon.3 }
%union._zend_value = type { i64 }
%union.anon.0 = type { i32 }
%union.anon.3 = type { i32 }
%struct._xmlNode = type { ptr, i32, ptr, ptr, ptr, ptr, ptr, ptr, ptr, ptr, ptr, ptr, ptr, ptr, i16, i16 }

; Function Attrs: nounwind uwtable
define hidden i32 @dom_node_node_type_read(ptr noundef %0, ptr noundef %1) #0 {
  %3 = alloca i32, align 4
  %4 = alloca ptr, align 8
  %5 = alloca ptr, align 8
  %6 = alloca ptr, align 8
  %7 = alloca ptr, align 8
  %8 = alloca ptr, align 8
  store ptr %0, ptr %4, align 8
  store ptr %1, ptr %5, align 8
  %9 = load ptr, ptr %4, align 8
  %10 = call ptr @dom_object_get_node(ptr noundef %9)
  store ptr %10, ptr %6, align 8
  %11 = load ptr, ptr %6, align 8
  %12 = icmp eq ptr %11, null
  br i1 %12, label %13, label %14

13:                                               ; preds = %2
  call void @php_dom_throw_error(i32 noundef 11, i32 noundef 1)
  store i32 -1, ptr %3, align 4
  br label %40

14:                                               ; preds = %2
  %15 = load ptr, ptr %6, align 8
  %16 = getelementptr inbounds %struct._xmlNode, ptr %15, i32 0, i32 1
  %17 = load i32, ptr %16, align 8
  %18 = icmp eq i32 %17, 14
  br i1 %18, label %19, label %27

19:                                               ; preds = %14
  br label %20

20:                                               ; preds = %19
  %21 = load ptr, ptr %5, align 8
  store ptr %21, ptr %7, align 8
  %22 = load ptr, ptr %7, align 8
  %23 = getelementptr inbounds %struct._zval_struct, ptr %22, i32 0, i32 0
  store i64 10, ptr %23, align 8
  %24 = load ptr, ptr %7, align 8
  %25 = getelementptr inbounds %struct._zval_struct, ptr %24, i32 0, i32 1
  store i32 4, ptr %25, align 8
  br label %26

26:                                               ; preds = %20
  br label %39

27:                                               ; preds = %14
  br label %28

28:                                               ; preds = %27
  %29 = load ptr, ptr %5, align 8
  store ptr %29, ptr %8, align 8
  %30 = load ptr, ptr %6, align 8
  %31 = getelementptr inbounds %struct._xmlNode, ptr %30, i32 0, i32 1
  %32 = load i32, ptr %31, align 8
  %33 = zext i32 %32 to i64
  %34 = load ptr, ptr %8, align 8
  %35 = getelementptr inbounds %struct._zval_struct, ptr %34, i32 0, i32 0
  store i64 %33, ptr %35, align 8
  %36 = load ptr, ptr %8, align 8
  %37 = getelementptr inbounds %struct._zval_struct, ptr %36, i32 0, i32 1
  store i32 4, ptr %37, align 8
  br label %38

38:                                               ; preds = %28
  br label %39

39:                                               ; preds = %38, %26
  store i32 0, ptr %3, align 4
  br label %40

40:                                               ; preds = %39, %13
  %41 = load i32, ptr %3, align 4
  ret i32 %41
}