; Function Attrs: nounwind uwtable
define hidden noundef i32 @dom_node_node_type_read(ptr noundef %0, ptr nocapture noundef writeonly %1) local_unnamed_addr #0 {
  %3 = tail call ptr @dom_object_get_node(ptr noundef %0) #12
  %4 = icmp eq ptr %3, null
  br i1 %4, label %5, label %6

5:                                                ; preds = %2
  tail call void @php_dom_throw_error(i32 noundef 11, i32 noundef 1) #12
  br label %15

6:                                                ; preds = %2
  %7 = getelementptr inbounds i8, ptr %3, i64 8
  %8 = load i32, ptr %7, align 8
  %9 = icmp eq i32 %8, 14
  br i1 %9, label %10, label %12

10:                                               ; preds = %6
  store i64 10, ptr %1, align 8
  %11 = getelementptr inbounds i8, ptr %1, i64 8
  store i32 4, ptr %11, align 8
  br label %15

12:                                               ; preds = %6
  %13 = zext i32 %8 to i64
  store i64 %13, ptr %1, align 8
  %14 = getelementptr inbounds i8, ptr %1, i64 8
  store i32 4, ptr %14, align 8
  br label %15

15:                                               ; preds = %10, %12, %5
  %.0 = phi i32 [ -1, %5 ], [ 0, %12 ], [ 0, %10 ]
  ret i32 %.0
}